target datalayout = "e-m:e-p270:32:32-p271:32:32-p272:64:64-i64:64-i128:128-f80:128-n8:16:32:64-S128"
target triple = "x86_64-pc-linux-gnu"

%"class.Eigen::internal::variable_if_dynamic" = type { i64 }
%"class.Eigen::internal::variable_if_dynamic.159" = type { i8 }
%"class.Eigen::Stride.640" = type <{ %"class.Eigen::internal::variable_if_dynamic", %"class.Eigen::internal::variable_if_dynamic.159", [7 x i8] }>
%"class.Eigen::RefBase.1440" = type { %"class.Eigen::MapBase.1441", %"class.Eigen::Stride.640" }
%"class.Eigen::MapBase.1441" = type { %"class.Eigen::MapBase.1442" }
%"class.Eigen::MapBase.1442" = type { ptr, %"class.Eigen::internal::variable_if_dynamic", %"class.Eigen::internal::variable_if_dynamic" }
%"struct.Eigen::internal::gemm_functor" = type { ptr, ptr, ptr, double, ptr }
%"struct.Eigen::internal::GemmParallelInfo" = type { %"struct.std::atomic", %"struct.std::atomic.1788", i64, i64 }
%"struct.std::atomic" = type { %"struct.std::__atomic_base" }
%"struct.std::__atomic_base" = type { i64 }
%"struct.std::atomic.1788" = type { %"struct.std::__atomic_base.1789" }
%"struct.std::__atomic_base.1789" = type { i32 }

; Function Attrs: mustprogress nounwind uwtable
define linkonce_odr noundef nonnull align 8 dereferenceable(40) ptr @_ZNK5Eigen9EigenBaseINS_3RefINS_6MatrixIdLin1ELin1ELi0ELin1ELin1EEELi0ENS_11OuterStrideILin1EEEEEE7derivedEv(ptr noundef nonnull align 1 dereferenceable(1) %0) #4 comdat align 2 {
  %2 = alloca ptr, align 8
  store ptr %0, ptr %2, align 8
  %3 = load ptr, ptr %2, align 8
  ret ptr %3
}

; Function Attrs: mustprogress nounwind uwtable
define linkonce_odr noundef i64 @_ZNK5Eigen15DenseCoeffsBaseINS_3RefINS_6MatrixIdLin1ELin1ELi0ELin1ELin1EEELi0ENS_11OuterStrideILin1EEEEELi3EE11innerStrideEv(ptr noundef nonnull align 1 dereferenceable(1) %0) #4 comdat align 2 {
  %2 = alloca ptr, align 8
  store ptr %0, ptr %2, align 8
  %3 = load ptr, ptr %2, align 8
  %4 = call noundef nonnull align 8 dereferenceable(40) ptr @_ZNK5Eigen9EigenBaseINS_3RefINS_6MatrixIdLin1ELin1ELi0ELin1ELin1EEELi0ENS_11OuterStrideILin1EEEEEE7derivedEv(ptr noundef nonnull align 1 dereferenceable(1) %3)
  %5 = call noundef i64 @_ZNK5Eigen7RefBaseINS_3RefINS_6MatrixIdLin1ELin1ELi0ELin1ELin1EEELi0ENS_11OuterStrideILin1EEEEEE11innerStrideEv(ptr noundef nonnull align 8 dereferenceable(40) %4)
  ret i64 %5
}

; Function Attrs: mustprogress nounwind uwtable
define linkonce_odr noundef i64 @_ZNK5Eigen15DenseCoeffsBaseINS_3RefINS_6MatrixIdLin1ELin1ELi0ELin1ELin1EEELi0ENS_11OuterStrideILin1EEEEELi3EE11outerStrideEv(ptr noundef nonnull align 1 dereferenceable(1) %0) #4 comdat align 2 personality ptr @__gxx_personality_v0 {
  %2 = alloca ptr, align 8
  store ptr %0, ptr %2, align 8
  %3 = load ptr, ptr %2, align 8
  %4 = invoke noundef nonnull align 8 dereferenceable(40) ptr @_ZNK5Eigen9EigenBaseINS_3RefINS_6MatrixIdLin1ELin1ELi0ELin1ELin1EEELi0ENS_11OuterStrideILin1EEEEEE7derivedEv(ptr noundef nonnull align 1 dereferenceable(1) %3)
          to label %5 unwind label %7

5:                                                ; preds = %1
  %6 = call noundef i64 @_ZNK5Eigen7RefBaseINS_3RefINS_6MatrixIdLin1ELin1ELi0ELin1ELin1EEELi0ENS_11OuterStrideILin1EEEEEE11outerStrideEv(ptr noundef nonnull align 8 dereferenceable(40) %4)
  ret i64 %6

7:                                                ; preds = %1
  %8 = landingpad { ptr, i32 }
          catch ptr null
  %9 = extractvalue { ptr, i32 } %8, 0
  call void @__clang_call_terminate(ptr %9) #24
  unreachable
}

; Function Attrs: mustprogress nounwind uwtable
define linkonce_odr noundef i64 @_ZNK5Eigen6StrideILin1ELi0EE5outerEv(ptr noundef nonnull align 8 dereferenceable(9) %0) #4 comdat align 2 {
  %2 = alloca ptr, align 8
  store ptr %0, ptr %2, align 8
  %3 = load ptr, ptr %2, align 8
  %4 = getelementptr inbounds %"class.Eigen::Stride.640", ptr %3, i32 0, i32 0
  %5 = call noundef i64 @_ZNK5Eigen8internal19variable_if_dynamicIlLin1EE5valueEv(ptr noundef nonnull align 8 dereferenceable(8) %4)
  ret i64 %5
}

; Function Attrs: mustprogress nounwind uwtable
define linkonce_odr noundef i64 @_ZNK5Eigen15DenseCoeffsBaseINS_3RefINS_6MatrixIdLin1ELin1ELi0ELin1ELin1EEELi0ENS_11OuterStrideILin1EEEEELi3EE9rowStrideEv(ptr noundef nonnull align 1 dereferenceable(1) %0) #4 comdat align 2 {
  %2 = alloca ptr, align 8
  store ptr %0, ptr %2, align 8
  %3 = load ptr, ptr %2, align 8
  %4 = call noundef i64 @_ZNK5Eigen15DenseCoeffsBaseINS_3RefINS_6MatrixIdLin1ELin1ELi0ELin1ELin1EEELi0ENS_11OuterStrideILin1EEEEELi3EE11innerStrideEv(ptr noundef nonnull align 1 dereferenceable(1) %3) #3
  ret i64 %4
}

; Function Attrs: mustprogress nounwind uwtable
define linkonce_odr noundef i64 @_ZNK5Eigen15DenseCoeffsBaseINS_3RefINS_6MatrixIdLin1ELin1ELi0ELin1ELin1EEELi0ENS_11OuterStrideILin1EEEEELi3EE9colStrideEv(ptr noundef nonnull align 1 dereferenceable(1) %0) #4 comdat align 2 {
  %2 = alloca ptr, align 8
  store ptr %0, ptr %2, align 8
  %3 = load ptr, ptr %2, align 8
  %4 = call noundef i64 @_ZNK5Eigen15DenseCoeffsBaseINS_3RefINS_6MatrixIdLin1ELin1ELi0ELin1ELin1EEELi0ENS_11OuterStrideILin1EEEEELi3EE11outerStrideEv(ptr noundef nonnull align 1 dereferenceable(1) %3) #3
  ret i64 %4
}

; Function Attrs: mustprogress nounwind uwtable
define linkonce_odr noundef i64 @_ZNK5Eigen8internal19variable_if_dynamicIlLin1EE5valueEv(ptr noundef nonnull align 8 dereferenceable(8) %0) #4 comdat align 2 {
  %2 = alloca ptr, align 8
  store ptr %0, ptr %2, align 8
  %3 = load ptr, ptr %2, align 8
  %4 = getelementptr inbounds %"class.Eigen::internal::variable_if_dynamic", ptr %3, i32 0, i32 0
  %5 = load i64, ptr %4, align 8
  ret i64 %5
}

; Function Attrs: mustprogress nounwind uwtable
define linkonce_odr noundef i64 @_ZNK5Eigen7RefBaseINS_3RefINS_6MatrixIdLin1ELin1ELi0ELin1ELin1EEELi0ENS_11OuterStrideILin1EEEEEE11innerStrideEv(ptr noundef nonnull align 8 dereferenceable(40) %0) #4 comdat align 2 {
  %2 = alloca ptr, align 8
  store ptr %0, ptr %2, align 8
  ret i64 1
}

; Function Attrs: mustprogress nounwind uwtable
define linkonce_odr noundef nonnull align 8 dereferenceable(8) ptr @_ZN5Eigen7MapBaseINS_3RefINS_6MatrixIdLin1ELin1ELi0ELin1ELin1EEELi0ENS_11OuterStrideILin1EEEEELi1EE8coeffRefEll(ptr noundef nonnull align 8 dereferenceable(24) %0, i64 noundef %1, i64 noundef %2) #4 comdat align 2 {
  %4 = alloca ptr, align 8
  %5 = alloca i64, align 8
  %6 = alloca i64, align 8
  store ptr %0, ptr %4, align 8
  store i64 %1, ptr %5, align 8
  store i64 %2, ptr %6, align 8
  %7 = load ptr, ptr %4, align 8
  %8 = getelementptr inbounds %"class.Eigen::MapBase.1442", ptr %7, i32 0, i32 0
  %9 = load ptr, ptr %8, align 8
  %10 = load i64, ptr %6, align 8
  %11 = call noundef i64 @_ZNK5Eigen15DenseCoeffsBaseINS_3RefINS_6MatrixIdLin1ELin1ELi0ELin1ELin1EEELi0ENS_11OuterStrideILin1EEEEELi3EE9colStrideEv(ptr noundef nonnull align 1 dereferenceable(1) %7) #3
  %12 = mul nsw i64 %10, %11
  %13 = load i64, ptr %5, align 8
  %14 = call noundef i64 @_ZNK5Eigen15DenseCoeffsBaseINS_3RefINS_6MatrixIdLin1ELin1ELi0ELin1ELin1EEELi0ENS_11OuterStrideILin1EEEEELi3EE9rowStrideEv(ptr noundef nonnull align 1 dereferenceable(1) %7) #3
  %15 = mul nsw i64 %13, %14
  %16 = add nsw i64 %12, %15
  %17 = getelementptr inbounds double, ptr %9, i64 %16
  ret ptr %17
}

; Function Attrs: mustprogress nounwind uwtable
define linkonce_odr noundef i64 @_ZNK5Eigen7RefBaseINS_3RefINS_6MatrixIdLin1ELin1ELi0ELin1ELin1EEELi0ENS_11OuterStrideILin1EEEEEE11outerStrideEv(ptr noundef nonnull align 8 dereferenceable(40) %0) #4 comdat align 2 {
  %2 = alloca ptr, align 8
  store ptr %0, ptr %2, align 8
  %3 = load ptr, ptr %2, align 8
  %4 = getelementptr inbounds %"class.Eigen::RefBase.1440", ptr %3, i32 0, i32 1
  %5 = call noundef i64 @_ZNK5Eigen6StrideILin1ELi0EE5outerEv(ptr noundef nonnull align 8 dereferenceable(9) %4)
  ret i64 %5
}

; Function Attrs: mustprogress nounwind uwtable
define linkonce_odr noundef nonnull align 8 dereferenceable(8) ptr @_ZNK5Eigen7MapBaseINS_3RefINS_6MatrixIdLin1ELin1ELi0ELin1ELin1EEELi0ENS_11OuterStrideILin1EEEEELi0EE8coeffRefEll(ptr noundef nonnull align 8 dereferenceable(24) %0, i64 noundef %1, i64 noundef %2) #4 comdat align 2 {
  %4 = alloca ptr, align 8
  %5 = alloca i64, align 8
  %6 = alloca i64, align 8
  store ptr %0, ptr %4, align 8
  store i64 %1, ptr %5, align 8
  store i64 %2, ptr %6, align 8
  %7 = load ptr, ptr %4, align 8
  %8 = getelementptr inbounds %"class.Eigen::MapBase.1442", ptr %7, i32 0, i32 0
  %9 = load ptr, ptr %8, align 8
  %10 = load i64, ptr %6, align 8
  %11 = call noundef i64 @_ZNK5Eigen15DenseCoeffsBaseINS_3RefINS_6MatrixIdLin1ELin1ELi0ELin1ELin1EEELi0ENS_11OuterStrideILin1EEEEELi3EE9colStrideEv(ptr noundef nonnull align 1 dereferenceable(1) %7) #3
  %12 = mul nsw i64 %10, %11
  %13 = load i64, ptr %5, align 8
  %14 = call noundef i64 @_ZNK5Eigen15DenseCoeffsBaseINS_3RefINS_6MatrixIdLin1ELin1ELi0ELin1ELin1EEELi0ENS_11OuterStrideILin1EEEEELi3EE9rowStrideEv(ptr noundef nonnull align 1 dereferenceable(1) %7) #3
  %15 = mul nsw i64 %13, %14
  %16 = add nsw i64 %12, %15
  %17 = getelementptr inbounds double, ptr %9, i64 %16
  ret ptr %17
}

; Function Attrs: mustprogress nounwind uwtable
define linkonce_odr noundef i64 @_ZNK5Eigen7MapBaseINS_3RefINS_6MatrixIdLin1ELin1ELi0ELin1ELin1EEELi0ENS_11OuterStrideILin1EEEEELi0EE4colsEv(ptr noundef nonnull align 8 dereferenceable(24) %0) #4 comdat align 2 {
  %2 = alloca ptr, align 8
  store ptr %0, ptr %2, align 8
  %3 = load ptr, ptr %2, align 8
  %4 = getelementptr inbounds %"class.Eigen::MapBase.1442", ptr %3, i32 0, i32 2
  %5 = call noundef i64 @_ZNK5Eigen8internal19variable_if_dynamicIlLin1EE5valueEv(ptr noundef nonnull align 8 dereferenceable(8) %4)
  ret i64 %5
}

; Function Attrs: mustprogress uwtable
define linkonce_odr void @_ZNK5Eigen8internal12gemm_functorIdlNS0_29general_matrix_matrix_productIldLi0ELb0EdLi0ELb0ELi0ELi1EEENS_3RefINS_6MatrixIdLin1ELin1ELi0ELin1ELin1EEELi0ENS_11OuterStrideILin1EEEEES9_S9_NS0_19gemm_blocking_spaceILi0EddLin1ELin1ELin1ELi1ELb0EEEEclEllllPNS0_16GemmParallelInfoIlEE(ptr noundef nonnull align 8 dereferenceable(40) %0, i64 noundef %1, i64 noundef %2, i64 noundef %3, i64 noundef %4, ptr noundef %5) #5 comdat align 2 {
  %7 = alloca ptr, align 8
  %8 = alloca i64, align 8
  %9 = alloca i64, align 8
  %10 = alloca i64, align 8
  %11 = alloca i64, align 8
  %12 = alloca ptr, align 8
  store ptr %0, ptr %7, align 8
  store i64 %1, ptr %8, align 8
  store i64 %2, ptr %9, align 8
  store i64 %3, ptr %10, align 8
  store i64 %4, ptr %11, align 8
  store ptr %5, ptr %12, align 8
  %13 = load ptr, ptr %7, align 8
  %14 = load i64, ptr %11, align 8
  %15 = icmp eq i64 %14, -1
  br i1 %15, label %16, label %20

16:                                               ; preds = %6
  %17 = getelementptr inbounds %"struct.Eigen::internal::gemm_functor", ptr %13, i32 0, i32 1
  %18 = load ptr, ptr %17, align 8
  %19 = call noundef i64 @_ZNK5Eigen7MapBaseINS_3RefINS_6MatrixIdLin1ELin1ELi0ELin1ELin1EEELi0ENS_11OuterStrideILin1EEEEELi0EE4colsEv(ptr noundef nonnull align 8 dereferenceable(24) %18) #3
  store i64 %19, ptr %11, align 8
  br label %20

20:                                               ; preds = %16, %6
  %21 = load i64, ptr %9, align 8
  %22 = load i64, ptr %11, align 8
  %23 = getelementptr inbounds %"struct.Eigen::internal::gemm_functor", ptr %13, i32 0, i32 0
  %24 = load ptr, ptr %23, align 8
  %25 = call noundef i64 @_ZNK5Eigen7MapBaseINS_3RefINS_6MatrixIdLin1ELin1ELi0ELin1ELin1EEELi0ENS_11OuterStrideILin1EEEEELi0EE4colsEv(ptr noundef nonnull align 8 dereferenceable(24) %24) #3
  %26 = getelementptr inbounds %"struct.Eigen::internal::gemm_functor", ptr %13, i32 0, i32 0
  %27 = load ptr, ptr %26, align 8
  %28 = load i64, ptr %8, align 8
  %29 = call noundef nonnull align 8 dereferenceable(8) ptr @_ZNK5Eigen7MapBaseINS_3RefINS_6MatrixIdLin1ELin1ELi0ELin1ELin1EEELi0ENS_11OuterStrideILin1EEEEELi0EE8coeffRefEll(ptr noundef nonnull align 8 dereferenceable(24) %27, i64 noundef %28, i64 noundef 0)
  %30 = getelementptr inbounds %"struct.Eigen::internal::gemm_functor", ptr %13, i32 0, i32 0
  %31 = load ptr, ptr %30, align 8
  %32 = call noundef i64 @_ZNK5Eigen7RefBaseINS_3RefINS_6MatrixIdLin1ELin1ELi0ELin1ELin1EEELi0ENS_11OuterStrideILin1EEEEEE11outerStrideEv(ptr noundef nonnull align 8 dereferenceable(40) %31)
  %33 = getelementptr inbounds %"struct.Eigen::internal::gemm_functor", ptr %13, i32 0, i32 1
  %34 = load ptr, ptr %33, align 8
  %35 = load i64, ptr %10, align 8
  %36 = call noundef nonnull align 8 dereferenceable(8) ptr @_ZNK5Eigen7MapBaseINS_3RefINS_6MatrixIdLin1ELin1ELi0ELin1ELin1EEELi0ENS_11OuterStrideILin1EEEEELi0EE8coeffRefEll(ptr noundef nonnull align 8 dereferenceable(24) %34, i64 noundef 0, i64 noundef %35)
  %37 = getelementptr inbounds %"struct.Eigen::internal::gemm_functor", ptr %13, i32 0, i32 1
  %38 = load ptr, ptr %37, align 8
  %39 = call noundef i64 @_ZNK5Eigen7RefBaseINS_3RefINS_6MatrixIdLin1ELin1ELi0ELin1ELin1EEELi0ENS_11OuterStrideILin1EEEEEE11outerStrideEv(ptr noundef nonnull align 8 dereferenceable(40) %38)
  %40 = getelementptr inbounds %"struct.Eigen::internal::gemm_functor", ptr %13, i32 0, i32 2
  %41 = load ptr, ptr %40, align 8
  %42 = load i64, ptr %8, align 8
  %43 = load i64, ptr %10, align 8
  %44 = call noundef nonnull align 8 dereferenceable(8) ptr @_ZN5Eigen7MapBaseINS_3RefINS_6MatrixIdLin1ELin1ELi0ELin1ELin1EEELi0ENS_11OuterStrideILin1EEEEELi1EE8coeffRefEll(ptr noundef nonnull align 8 dereferenceable(24) %41, i64 noundef %42, i64 noundef %43)
  %45 = getelementptr inbounds %"struct.Eigen::internal::gemm_functor", ptr %13, i32 0, i32 2
  %46 = load ptr, ptr %45, align 8
  %47 = call noundef i64 @_ZNK5Eigen7RefBaseINS_3RefINS_6MatrixIdLin1ELin1ELi0ELin1ELin1EEELi0ENS_11OuterStrideILin1EEEEEE11innerStrideEv(ptr noundef nonnull align 8 dereferenceable(40) %46)
  %48 = getelementptr inbounds %"struct.Eigen::internal::gemm_functor", ptr %13, i32 0, i32 2
  %49 = load ptr, ptr %48, align 8
  %50 = call noundef i64 @_ZNK5Eigen7RefBaseINS_3RefINS_6MatrixIdLin1ELin1ELi0ELin1ELin1EEELi0ENS_11OuterStrideILin1EEEEEE11outerStrideEv(ptr noundef nonnull align 8 dereferenceable(40) %49)
  %51 = getelementptr inbounds %"struct.Eigen::internal::gemm_functor", ptr %13, i32 0, i32 3
  %52 = load double, ptr %51, align 8
  %53 = getelementptr inbounds %"struct.Eigen::internal::gemm_functor", ptr %13, i32 0, i32 4
  %54 = load ptr, ptr %53, align 8
  %55 = load ptr, ptr %12, align 8
  call void @_ZN5Eigen8internal29general_matrix_matrix_productIldLi0ELb0EdLi0ELb0ELi0ELi1EE3runElllPKdlS4_lPdlldRNS0_15level3_blockingIddEEPNS0_16GemmParallelInfoIlEE(i64 noundef %21, i64 noundef %22, i64 noundef %25, ptr noundef %29, i64 noundef %32, ptr noundef %36, i64 noundef %39, ptr noundef %44, i64 noundef %47, i64 noundef %50, double noundef %52, ptr noundef nonnull align 8 dereferenceable(40) %54, ptr noundef %55)
  ret void
}

; Function Attrs: norecurse nounwind uwtable
define internal void @_ZN5Eigen8internal16parallelize_gemmILb1ENS0_12gemm_functorIdlNS0_29general_matrix_matrix_productIldLi0ELb0EdLi0ELb0ELi0ELi1EEENS_3RefINS_6MatrixIdLin1ELin1ELi0ELin1ELin1EEELi0ENS_11OuterStrideILin1EEEEESA_SA_NS0_19gemm_blocking_spaceILi0EddLin1ELin1ELin1ELi1ELb0EEEEElEEvRKT0_T1_SH_SH_b.omp_outlined(ptr noalias noundef %0, ptr noalias noundef %1, ptr noundef nonnull align 8 dereferenceable(8) %2, ptr noundef nonnull align 8 dereferenceable(8) %3, ptr noundef nonnull align 8 dereferenceable(8) %4, ptr noundef nonnull align 1 dereferenceable(1) %5, ptr noundef nonnull align 8 dereferenceable(40) %6) #22 personality ptr @__gxx_personality_v0 {
  %8 = alloca ptr, align 8
  %9 = alloca ptr, align 8
  %10 = alloca ptr, align 8
  %11 = alloca ptr, align 8
  %12 = alloca ptr, align 8
  %13 = alloca ptr, align 8
  %14 = alloca ptr, align 8
  %15 = alloca ptr, align 8
  %16 = alloca i64, align 8
  %17 = alloca i64, align 8
  %18 = alloca i64, align 8
  %19 = alloca i64, align 8
  %20 = alloca i64, align 8
  %21 = alloca i64, align 8
  %22 = alloca i64, align 8
  %23 = alloca i64, align 8
  store ptr %0, ptr %8, align 8
  store ptr %1, ptr %9, align 8
  store ptr %2, ptr %10, align 8
  store ptr %3, ptr %11, align 8
  store ptr %4, ptr %12, align 8
  store ptr %5, ptr %13, align 8
  store ptr %6, ptr %14, align 8
  %24 = load ptr, ptr %10, align 8
  %25 = load ptr, ptr %11, align 8
  %26 = load ptr, ptr %12, align 8
  %27 = load ptr, ptr %13, align 8
  %28 = load ptr, ptr %14, align 8
  store ptr %28, ptr %15, align 8
  %29 = invoke i32 @omp_get_thread_num()
          to label %30 unwind label %102

30:                                               ; preds = %7
  %31 = sext i32 %29 to i64
  store i64 %31, ptr %16, align 8
  %32 = invoke i32 @omp_get_num_threads()
          to label %33 unwind label %102

33:                                               ; preds = %30
  %34 = sext i32 %32 to i64
  store i64 %34, ptr %17, align 8
  %35 = load i64, ptr %24, align 8
  %36 = load i64, ptr %17, align 8
  %37 = sdiv i64 %35, %36
  %38 = and i64 %37, -4
  store i64 %38, ptr %18, align 8
  %39 = load i64, ptr %25, align 8
  %40 = load i64, ptr %17, align 8
  %41 = sdiv i64 %39, %40
  store i64 %41, ptr %19, align 8
  %42 = load i64, ptr %19, align 8
  %43 = sdiv i64 %42, 4
  %44 = mul nsw i64 %43, 4
  store i64 %44, ptr %19, align 8
  %45 = load i64, ptr %16, align 8
  %46 = load i64, ptr %19, align 8
  %47 = mul nsw i64 %45, %46
  store i64 %47, ptr %20, align 8
  %48 = load i64, ptr %16, align 8
  %49 = add nsw i64 %48, 1
  %50 = load i64, ptr %17, align 8
  %51 = icmp eq i64 %49, %50
  br i1 %51, label %52, label %56

52:                                               ; preds = %33
  %53 = load i64, ptr %25, align 8
  %54 = load i64, ptr %20, align 8
  %55 = sub nsw i64 %53, %54
  br label %58

56:                                               ; preds = %33
  %57 = load i64, ptr %19, align 8
  br label %58

58:                                               ; preds = %56, %52
  %59 = phi i64 [ %55, %52 ], [ %57, %56 ]
  store i64 %59, ptr %21, align 8
  %60 = load i64, ptr %16, align 8
  %61 = load i64, ptr %18, align 8
  %62 = mul nsw i64 %60, %61
  store i64 %62, ptr %22, align 8
  %63 = load i64, ptr %16, align 8
  %64 = add nsw i64 %63, 1
  %65 = load i64, ptr %17, align 8
  %66 = icmp eq i64 %64, %65
  br i1 %66, label %67, label %71

67:                                               ; preds = %58
  %68 = load i64, ptr %24, align 8
  %69 = load i64, ptr %22, align 8
  %70 = sub nsw i64 %68, %69
  br label %73

71:                                               ; preds = %58
  %72 = load i64, ptr %18, align 8
  br label %73

73:                                               ; preds = %71, %67
  %74 = phi i64 [ %70, %67 ], [ %72, %71 ]
  store i64 %74, ptr %23, align 8
  %75 = load i64, ptr %20, align 8
  %76 = load ptr, ptr %26, align 8
  %77 = load i64, ptr %16, align 8
  %78 = getelementptr inbounds %"struct.Eigen::internal::GemmParallelInfo", ptr %76, i64 %77
  %79 = getelementptr inbounds %"struct.Eigen::internal::GemmParallelInfo", ptr %78, i32 0, i32 2
  store i64 %75, ptr %79, align 8
  %80 = load i64, ptr %21, align 8
  %81 = load ptr, ptr %26, align 8
  %82 = load i64, ptr %16, align 8
  %83 = getelementptr inbounds %"struct.Eigen::internal::GemmParallelInfo", ptr %81, i64 %82
  %84 = getelementptr inbounds %"struct.Eigen::internal::GemmParallelInfo", ptr %83, i32 0, i32 3
  store i64 %80, ptr %84, align 8
  %85 = load i8, ptr %27, align 1
  %86 = trunc i8 %85 to i1
  br i1 %86, label %87, label %94

87:                                               ; preds = %73
  %88 = load ptr, ptr %15, align 8
  %89 = load i64, ptr %22, align 8
  %90 = load i64, ptr %23, align 8
  %91 = load i64, ptr %25, align 8
  %92 = load ptr, ptr %26, align 8
  invoke void @_ZNK5Eigen8internal12gemm_functorIdlNS0_29general_matrix_matrix_productIldLi0ELb0EdLi0ELb0ELi0ELi1EEENS_3RefINS_6MatrixIdLin1ELin1ELi0ELin1ELin1EEELi0ENS_11OuterStrideILin1EEEEES9_S9_NS0_19gemm_blocking_spaceILi0EddLin1ELin1ELin1ELi1ELb0EEEEclEllllPNS0_16GemmParallelInfoIlEE(ptr noundef nonnull align 8 dereferenceable(40) %88, i64 noundef %89, i64 noundef %90, i64 noundef 0, i64 noundef %91, ptr noundef %92)
          to label %93 unwind label %102

93:                                               ; preds = %87
  br label %101

94:                                               ; preds = %73
  %95 = load ptr, ptr %15, align 8
  %96 = load i64, ptr %25, align 8
  %97 = load i64, ptr %22, align 8
  %98 = load i64, ptr %23, align 8
  %99 = load ptr, ptr %26, align 8
  invoke void @_ZNK5Eigen8internal12gemm_functorIdlNS0_29general_matrix_matrix_productIldLi0ELb0EdLi0ELb0ELi0ELi1EEENS_3RefINS_6MatrixIdLin1ELin1ELi0ELin1ELin1EEELi0ENS_11OuterStrideILin1EEEEES9_S9_NS0_19gemm_blocking_spaceILi0EddLin1ELin1ELin1ELi1ELb0EEEEclEllllPNS0_16GemmParallelInfoIlEE(ptr noundef nonnull align 8 dereferenceable(40) %95, i64 noundef 0, i64 noundef %96, i64 noundef %97, i64 noundef %98, ptr noundef %99)
          to label %100 unwind label %102

100:                                              ; preds = %94
  br label %101

101:                                              ; preds = %100, %93
  ret void

102:                                              ; preds = %94, %87, %30, %7
  %103 = landingpad { ptr, i32 }
          catch ptr null
  %104 = extractvalue { ptr, i32 } %103, 0
  call void @__clang_call_terminate(ptr %104) #24
  unreachable
}