; Function Attrs: norecurse nounwind uwtable
define internal void @_ZN5Eigen8internal16parallelize_gemmILb1ENS0_12gemm_functorIdlNS0_29general_matrix_matrix_productIldLi0ELb0EdLi0ELb0ELi0ELi1EEENS_3RefINS_6MatrixIdLin1ELin1ELi0ELin1ELin1EEELi0ENS_11OuterStrideILin1EEEEESA_SA_NS0_19gemm_blocking_spaceILi0EddLin1ELin1ELin1ELi1ELb0EEEEElEEvRKT0_T1_SH_SH_b.omp_outlined(ptr noalias nocapture readnone %0, ptr noalias nocapture readnone %1, ptr nocapture noundef nonnull readonly align 8 dereferenceable(8) %2, ptr nocapture noundef nonnull readonly align 8 dereferenceable(8) %3, ptr nocapture noundef nonnull readonly align 8 dereferenceable(8) %4, ptr nocapture noundef nonnull readonly align 1 dereferenceable(1) %5, ptr nocapture noundef nonnull readonly align 8 dereferenceable(40) %6) #24 personality ptr @__gxx_personality_v0 {
  %8 = tail call i32 @omp_get_thread_num()
  %9 = sext i32 %8 to i64
  %10 = tail call i32 @omp_get_num_threads()
  %11 = sext i32 %10 to i64
  %12 = load i64, ptr %2, align 8
  %13 = sdiv i64 %12, %11
  %14 = and i64 %13, -4
  %15 = load i64, ptr %3, align 8
  %16 = sdiv i64 %15, %11
  %17 = sdiv i64 %16, 4
  %18 = shl nsw i64 %17, 2
  %19 = mul nsw i64 %18, %9
  %20 = add nsw i64 %9, 1
  %21 = icmp eq i64 %20, %11
  %22 = sub nsw i64 %15, %19
  %23 = select i1 %21, i64 %22, i64 %18
  %24 = mul nsw i64 %14, %9
  %25 = sub nsw i64 %12, %24
  %26 = select i1 %21, i64 %25, i64 %14
  %27 = load ptr, ptr %4, align 8
  %28 = getelementptr inbounds %"struct.Eigen::internal::GemmParallelInfo", ptr %27, i64 %9, i32 2
  store i64 %19, ptr %28, align 8
  %29 = load ptr, ptr %4, align 8
  %30 = getelementptr inbounds %"struct.Eigen::internal::GemmParallelInfo", ptr %29, i64 %9, i32 3
  store i64 %23, ptr %30, align 8
  %31 = load i8, ptr %5, align 1
  %32 = and i8 %31, 1
  %.not = icmp eq i8 %32, 0
  %33 = load i64, ptr %3, align 8
  %34 = load ptr, ptr %4, align 8
  %35 = getelementptr inbounds i8, ptr %6, i64 8
  %36 = load ptr, ptr %35, align 8
  br i1 %.not, label %54, label %37

37:                                               ; preds = %7
  %38 = icmp eq i64 %33, -1
  br i1 %38, label %39, label %._crit_edge.i

39:                                               ; preds = %37
  %40 = getelementptr inbounds i8, ptr %36, i64 16
  %41 = load i64, ptr %40, align 8
  br label %._crit_edge.i

._crit_edge.i:                                    ; preds = %39, %37
  %.0.i = phi i64 [ %41, %39 ], [ %33, %37 ]
  %42 = load ptr, ptr %6, align 8
  %43 = load ptr, ptr %42, align 8
  %44 = getelementptr double, ptr %43, i64 %24
  %45 = load ptr, ptr %36, align 8
  %46 = getelementptr inbounds i8, ptr %36, i64 24
  %47 = load i64, ptr %46, align 8
  %48 = getelementptr inbounds i8, ptr %6, i64 16
  %49 = load ptr, ptr %48, align 8
  %50 = load ptr, ptr %49, align 8
  %51 = getelementptr inbounds i8, ptr %49, i64 24
  %52 = load i64, ptr %51, align 8
  %53 = getelementptr double, ptr %50, i64 %24
  br label %._crit_edge.i29.invoke

54:                                               ; preds = %7
  %55 = icmp eq i64 %26, -1
  br i1 %55, label %56, label %._crit_edge.i29

56:                                               ; preds = %54
  %57 = getelementptr inbounds i8, ptr %36, i64 16
  %58 = load i64, ptr %57, align 8
  br label %._crit_edge.i29

._crit_edge.i29:                                  ; preds = %56, %54
  %.0.i30 = phi i64 [ %58, %56 ], [ %26, %54 ]
  %59 = load ptr, ptr %6, align 8
  %60 = load ptr, ptr %59, align 8
  %61 = load ptr, ptr %36, align 8
  %62 = getelementptr inbounds i8, ptr %36, i64 24
  %63 = load i64, ptr %62, align 8
  %64 = mul nsw i64 %63, %24
  %65 = getelementptr double, ptr %61, i64 %64
  %66 = getelementptr inbounds i8, ptr %6, i64 16
  %67 = load ptr, ptr %66, align 8
  %68 = load ptr, ptr %67, align 8
  %69 = getelementptr inbounds i8, ptr %67, i64 24
  %70 = load i64, ptr %69, align 8
  %71 = mul nsw i64 %70, %24
  %72 = getelementptr double, ptr %68, i64 %71
  br label %._crit_edge.i29.invoke

._crit_edge.i29.invoke:                           ; preds = %._crit_edge.i, %._crit_edge.i29
  %73 = phi i64 [ %33, %._crit_edge.i29 ], [ %26, %._crit_edge.i ]
  %74 = phi i64 [ %.0.i30, %._crit_edge.i29 ], [ %.0.i, %._crit_edge.i ]
  %.pn = phi ptr [ %59, %._crit_edge.i29 ], [ %42, %._crit_edge.i ]
  %75 = phi ptr [ %60, %._crit_edge.i29 ], [ %44, %._crit_edge.i ]
  %76 = phi ptr [ %65, %._crit_edge.i29 ], [ %45, %._crit_edge.i ]
  %77 = phi i64 [ %63, %._crit_edge.i29 ], [ %47, %._crit_edge.i ]
  %78 = phi ptr [ %72, %._crit_edge.i29 ], [ %53, %._crit_edge.i ]
  %79 = phi i64 [ %70, %._crit_edge.i29 ], [ %52, %._crit_edge.i ]
  %.in32 = getelementptr inbounds i8, ptr %.pn, i64 24
  %80 = load i64, ptr %.in32, align 8
  %.in = getelementptr inbounds i8, ptr %.pn, i64 16
  %81 = load i64, ptr %.in, align 8
  %82 = getelementptr inbounds i8, ptr %6, i64 24
  %83 = load double, ptr %82, align 8
  %84 = getelementptr inbounds i8, ptr %6, i64 32
  %85 = load ptr, ptr %84, align 8
  invoke void @_ZN5Eigen8internal29general_matrix_matrix_productIldLi0ELb0EdLi0ELb0ELi0ELi1EE3runElllPKdlS4_lPdlldRNS0_15level3_blockingIddEEPNS0_16GemmParallelInfoIlEE(i64 noundef %73, i64 noundef %74, i64 noundef %81, ptr noundef nonnull %75, i64 noundef %80, ptr noundef nonnull %76, i64 noundef %77, ptr noundef nonnull %78, i64 noundef 1, i64 noundef %79, double noundef %83, ptr noundef nonnull align 8 dereferenceable(40) %85, ptr noundef %34)
          to label %_ZNK5Eigen8internal12gemm_functorIdlNS0_29general_matrix_matrix_productIldLi0ELb0EdLi0ELb0ELi0ELi1EEENS_3RefINS_6MatrixIdLin1ELin1ELi0ELin1ELin1EEELi0ENS_11OuterStrideILin1EEEEES9_S9_NS0_19gemm_blocking_spaceILi0EddLin1ELin1ELin1ELi1ELb0EEEEclEllllPNS0_16GemmParallelInfoIlEE.exit unwind label %86

_ZNK5Eigen8internal12gemm_functorIdlNS0_29general_matrix_matrix_productIldLi0ELb0EdLi0ELb0ELi0ELi1EEENS_3RefINS_6MatrixIdLin1ELin1ELi0ELin1ELin1EEELi0ENS_11OuterStrideILin1EEEEES9_S9_NS0_19gemm_blocking_spaceILi0EddLin1ELin1ELin1ELi1ELb0EEEEclEllllPNS0_16GemmParallelInfoIlEE.exit: ; preds = %._crit_edge.i29.invoke
  ret void

86:                                               ; preds = %._crit_edge.i29.invoke
  %87 = landingpad { ptr, i32 }
          catch ptr null
  %88 = extractvalue { ptr, i32 } %87, 0
  tail call void @__clang_call_terminate(ptr %88) #35
  unreachable
}